target datalayout = "e-m:e-p270:32:32-p271:32:32-p272:64:64-i64:64-i128:128-f80:128-n8:16:32:64-S128"
target triple = "x86_64-pc-linux-gnu"

%struct._GLFWwindow = type { ptr, i32, i32, i32, i32, i32, i32, i32, ptr, i32, %struct.GLFWvidmode, ptr, ptr, ptr, i32, i32, i32, i32, i32, i32, i32, i32, i32, i32, [8 x i8], [349 x i8], double, double, i32, %struct._GLFWcontext, %struct.anon.1, %struct._GLFWwindowWayland, %struct._GLFWwindowX11, %struct._GLFWwindowNull }
%struct.GLFWvidmode = type { i32, i32, i32, i32, i32, i32 }
%struct._GLFWcontext = type { i32, i32, i32, i32, i32, i32, i32, i32, i32, i32, i32, ptr, ptr, ptr, ptr, ptr, ptr, ptr, ptr, ptr, %struct.anon, %struct.anon.0, %struct._GLFWcontextGLX }
%struct.anon = type { ptr, ptr, ptr, ptr }
%struct.anon.0 = type { ptr, i32, i32, ptr }
%struct._GLFWcontextGLX = type { ptr, i64 }
%struct.anon.1 = type { ptr, ptr, ptr, ptr, ptr, ptr, ptr, ptr, ptr, ptr, ptr, ptr, ptr, ptr, ptr, ptr, ptr }
%struct._GLFWwindowWayland = type { i32, i32, i32, i32, i32, i32, i32, i32, i32, i32, i32, ptr, ptr, %struct.anon.2, %struct.anon.3, %struct.anon.4, %struct.anon.5, ptr, double, double, ptr, i32, ptr, i64, i64, ptr, i32, ptr, ptr, ptr, ptr, ptr, ptr, %struct.anon.6 }
%struct.anon.2 = type { ptr }
%struct.anon.3 = type { i32, i32, i32, i32, i32, i32 }
%struct.anon.4 = type { ptr, ptr, ptr, i32 }
%struct.anon.5 = type { ptr }
%struct.anon.6 = type { i32, ptr, %struct._GLFWfallbackEdgeWayland, %struct._GLFWfallbackEdgeWayland, %struct._GLFWfallbackEdgeWayland, %struct._GLFWfallbackEdgeWayland, ptr }
%struct._GLFWfallbackEdgeWayland = type { ptr, ptr, ptr }
%struct._GLFWwindowX11 = type { i64, i64, i64, ptr, i32, i32, i32, i32, i32, i32, i32, i32, i32, i32, i32, i32, [256 x i64] }
%struct._GLFWwindowNull = type { i32, i32, i32, i32, i32, i32, i32, i32, i32, i32, i32, float }

; Function Attrs: nounwind uwtable
define hidden void @_glfwInputDrop(ptr noundef %0, i32 noundef %1, ptr noundef %2) #0 {
  %4 = alloca ptr, align 8
  %5 = alloca i32, align 4
  %6 = alloca ptr, align 8
  store ptr %0, ptr %4, align 8, !tbaa !3
  store i32 %1, ptr %5, align 4, !tbaa !8
  store ptr %2, ptr %6, align 8, !tbaa !65
  %7 = load ptr, ptr %4, align 8, !tbaa !3
  %8 = getelementptr inbounds nuw %struct._GLFWwindow, ptr %7, i32 0, i32 30
  %9 = getelementptr inbounds nuw %struct.anon.1, ptr %8, i32 0, i32 16
  %10 = load ptr, ptr %9, align 8, !tbaa !67
  %11 = icmp ne ptr %10, null
  br i1 %11, label %12, label %20

12:                                               ; preds = %3
  %13 = load ptr, ptr %4, align 8, !tbaa !3
  %14 = getelementptr inbounds nuw %struct._GLFWwindow, ptr %13, i32 0, i32 30
  %15 = getelementptr inbounds nuw %struct.anon.1, ptr %14, i32 0, i32 16
  %16 = load ptr, ptr %15, align 8, !tbaa !67
  %17 = load ptr, ptr %4, align 8, !tbaa !3
  %18 = load i32, ptr %5, align 4, !tbaa !8
  %19 = load ptr, ptr %6, align 8, !tbaa !65
  call void %16(ptr noundef %17, i32 noundef %18, ptr noundef %19)
  br label %20

20:                                               ; preds = %12, %3
  ret void
}